; Function Attrs: nounwind uwtable
define noalias nonnull ptr @l_Lean_Elab_Term_expandUnreachable___rarg(ptr noundef readonly captures(none) %0, ptr noundef %1) local_unnamed_addr #0 {
  %3 = getelementptr inbounds nuw i8, ptr %0, i64 48
  %4 = load ptr, ptr %3, align 8, !tbaa !10
  %5 = tail call ptr @l_Lean_SourceInfo_fromRef(ptr noundef %4, i8 noundef zeroext 0) #6
  %6 = load ptr, ptr @l_Lean_Elab_Term_expandUnreachable___rarg___closed__1, align 8, !tbaa !10
  %7 = ptrtoint ptr %5 to i64
  %8 = and i64 %7, 1
  %.not = icmp eq i64 %8, 0
  br i1 %.not, label %9, label %lean_inc.exit26

9:                                                ; preds = %2
  %.val.i = load i32, ptr %5, align 4, !tbaa !4
  %10 = icmp sgt i32 %.val.i, 0
  br i1 %10, label %11, label %13, !prof !9

11:                                               ; preds = %9
  %12 = add nuw i32 %.val.i, 1
  store i32 %12, ptr %5, align 4, !tbaa !4
  br label %lean_inc.exit26

13:                                               ; preds = %9
  %.not.i = icmp eq i32 %.val.i, 0
  br i1 %.not.i, label %lean_inc.exit26, label %14

14:                                               ; preds = %13
  tail call void @lean_inc_ref_cold(ptr noundef nonnull %5) #6
  br label %lean_inc.exit26

lean_inc.exit26:                                  ; preds = %14, %13, %11, %2
  tail call void @lean_inc_heartbeat() #6
  %15 = tail call noalias ptr @mi_malloc_small(i64 noundef 24) #6
  %16 = icmp eq ptr %15, null
  br i1 %16, label %17, label %lean_alloc_ctor.exit

17:                                               ; preds = %lean_inc.exit26
  tail call void @lean_internal_panic_out_of_memory() #7
  unreachable

lean_alloc_ctor.exit:                             ; preds = %lean_inc.exit26
  %18 = getelementptr inbounds nuw i8, ptr %15, i64 4
  store i32 1, ptr %15, align 4, !tbaa !4
  store i32 33685528, ptr %18, align 4
  %19 = getelementptr inbounds nuw i8, ptr %15, i64 8
  store ptr %5, ptr %19, align 8, !tbaa !10
  %20 = getelementptr inbounds nuw i8, ptr %15, i64 16
  store ptr %6, ptr %20, align 8, !tbaa !10
  %21 = load ptr, ptr @l_Lean_Elab_Term_expandUnreachable___rarg___closed__4, align 8, !tbaa !10
  br i1 %.not, label %22, label %lean_inc.exit25

22:                                               ; preds = %lean_alloc_ctor.exit
  %.val.i27 = load i32, ptr %5, align 4, !tbaa !4
  %23 = icmp sgt i32 %.val.i27, 0
  br i1 %23, label %24, label %26, !prof !9

24:                                               ; preds = %22
  %25 = add nuw i32 %.val.i27, 1
  store i32 %25, ptr %5, align 4, !tbaa !4
  br label %lean_inc.exit25

26:                                               ; preds = %22
  %.not.i28 = icmp eq i32 %.val.i27, 0
  br i1 %.not.i28, label %lean_inc.exit25, label %27

27:                                               ; preds = %26
  tail call void @lean_inc_ref_cold(ptr noundef nonnull %5) #6
  br label %lean_inc.exit25

lean_inc.exit25:                                  ; preds = %27, %26, %24, %lean_alloc_ctor.exit
  tail call void @lean_inc_heartbeat() #6
  %28 = tail call noalias ptr @mi_malloc_small(i64 noundef 24) #6
  %29 = icmp eq ptr %28, null
  br i1 %29, label %30, label %lean_alloc_ctor.exit30

30:                                               ; preds = %lean_inc.exit25
  tail call void @lean_internal_panic_out_of_memory() #7
  unreachable

lean_alloc_ctor.exit30:                           ; preds = %lean_inc.exit25
  %31 = getelementptr inbounds nuw i8, ptr %28, i64 4
  store i32 1, ptr %28, align 4, !tbaa !4
  store i32 33685528, ptr %31, align 4
  %32 = getelementptr inbounds nuw i8, ptr %28, i64 8
  store ptr %5, ptr %32, align 8, !tbaa !10
  %33 = getelementptr inbounds nuw i8, ptr %28, i64 16
  store ptr %21, ptr %33, align 8, !tbaa !10
  %34 = load ptr, ptr @l_Lean_Elab_Term_expandUnreachable___rarg___closed__3, align 8, !tbaa !10
  br i1 %.not, label %35, label %lean_inc.exit

35:                                               ; preds = %lean_alloc_ctor.exit30
  %.val.i31 = load i32, ptr %5, align 4, !tbaa !4
  %36 = icmp sgt i32 %.val.i31, 0
  br i1 %36, label %37, label %39, !prof !9

37:                                               ; preds = %35
  %38 = add nuw i32 %.val.i31, 1
  store i32 %38, ptr %5, align 4, !tbaa !4
  br label %lean_inc.exit

39:                                               ; preds = %35
  %.not.i32 = icmp eq i32 %.val.i31, 0
  br i1 %.not.i32, label %lean_inc.exit, label %40

40:                                               ; preds = %39
  tail call void @lean_inc_ref_cold(ptr noundef nonnull %5) #6
  br label %lean_inc.exit

lean_inc.exit:                                    ; preds = %40, %39, %37, %lean_alloc_ctor.exit30
  %41 = tail call ptr @l_Lean_Syntax_node1(ptr noundef %5, ptr noundef %34, ptr noundef nonnull %28) #6
  %42 = load ptr, ptr @l_Lean_Elab_Term_elabPanic___closed__2, align 8, !tbaa !10
  %43 = tail call ptr @l_Lean_Syntax_node2(ptr noundef %5, ptr noundef %42, ptr noundef nonnull %15, ptr noundef %41) #6
  tail call void @lean_inc_heartbeat() #6
  %44 = tail call noalias ptr @mi_malloc_small(i64 noundef 24) #6
  %45 = icmp eq ptr %44, null
  br i1 %45, label %46, label %lean_alloc_ctor.exit34

46:                                               ; preds = %lean_inc.exit
  tail call void @lean_internal_panic_out_of_memory() #7
  unreachable

lean_alloc_ctor.exit34:                           ; preds = %lean_inc.exit
  %47 = getelementptr inbounds nuw i8, ptr %44, i64 4
  store i32 1, ptr %44, align 4, !tbaa !4
  store i32 131096, ptr %47, align 4
  %48 = getelementptr inbounds nuw i8, ptr %44, i64 8
  store ptr %43, ptr %48, align 8, !tbaa !10
  %49 = getelementptr inbounds nuw i8, ptr %44, i64 16
  store ptr %1, ptr %49, align 8, !tbaa !10
  ret ptr %44
}